; ModuleID = '52/5091.c'
source_filename = "52/5091.c"
target datalayout = "e-m:e-p270:32:32-p271:32:32-p272:64:64-i64:64-f80:128-n8:16:32:64-S128"
target triple = "x86_64-pc-linux-gnu"

@.str = private unnamed_addr constant [5 x i8] c"%d%d\00", align 1
@.str.1 = private unnamed_addr constant [3 x i8] c"%d\00", align 1
@.str.2 = private unnamed_addr constant [4 x i8] c"%d \00", align 1

; Function Attrs: noinline nounwind uwtable
define dso_local void @move(i32* %0, i32* %1, i32 %2, i32 %3) #0 {
  %5 = alloca i32*, align 8
  %6 = alloca i32*, align 8
  %7 = alloca i32, align 4
  %8 = alloca i32, align 4
  %9 = alloca i32, align 4
  store i32* %0, i32** %5, align 8
  store i32* %1, i32** %6, align 8
  store i32 %2, i32* %7, align 4
  store i32 %3, i32* %8, align 4
  store i32 0, i32* %9, align 4
  br label %10

10:                                               ; preds = %46, %4
  %11 = load i32, i32* %9, align 4
  %12 = load i32, i32* %7, align 4
  %13 = sub nsw i32 %12, 1
  %14 = icmp sle i32 %11, %13
  br i1 %14, label %15, label %49

15:                                               ; preds = %10
  %16 = load i32, i32* %9, align 4
  %17 = load i32, i32* %8, align 4
  %18 = icmp sge i32 %16, %17
  br i1 %18, label %19, label %31

19:                                               ; preds = %15
  %20 = load i32*, i32** %5, align 8
  %21 = load i32, i32* %9, align 4
  %22 = load i32, i32* %8, align 4
  %23 = sub nsw i32 %21, %22
  %24 = sext i32 %23 to i64
  %25 = getelementptr inbounds i32, i32* %20, i64 %24
  %26 = load i32, i32* %25, align 4
  %27 = load i32*, i32** %6, align 8
  %28 = load i32, i32* %9, align 4
  %29 = sext i32 %28 to i64
  %30 = getelementptr inbounds i32, i32* %27, i64 %29
  store i32 %26, i32* %30, align 4
  br label %45

31:                                               ; preds = %15
  %32 = load i32*, i32** %5, align 8
  %33 = load i32, i32* %7, align 4
  %34 = load i32, i32* %8, align 4
  %35 = sub nsw i32 %33, %34
  %36 = load i32, i32* %9, align 4
  %37 = add nsw i32 %35, %36
  %38 = sext i32 %37 to i64
  %39 = getelementptr inbounds i32, i32* %32, i64 %38
  %40 = load i32, i32* %39, align 4
  %41 = load i32*, i32** %6, align 8
  %42 = load i32, i32* %9, align 4
  %43 = sext i32 %42 to i64
  %44 = getelementptr inbounds i32, i32* %41, i64 %43
  store i32 %40, i32* %44, align 4
  br label %45

45:                                               ; preds = %31, %19
  br label %46

46:                                               ; preds = %45
  %47 = load i32, i32* %9, align 4
  %48 = add nsw i32 %47, 1
  store i32 %48, i32* %9, align 4
  br label %10

49:                                               ; preds = %10
  ret void
}

; Function Attrs: noinline nounwind uwtable
define dso_local i32 @main() #0 {
  %1 = alloca i32, align 4
  %2 = alloca [100 x i32], align 16
  %3 = alloca [100 x i32], align 16
  %4 = alloca i32, align 4
  %5 = alloca i32, align 4
  %6 = alloca i32, align 4
  store i32 0, i32* %1, align 4
  %7 = call i32 (i8*, ...) @__isoc99_scanf(i8* getelementptr inbounds ([5 x i8], [5 x i8]* @.str, i64 0, i64 0), i32* %4, i32* %5)
  store i32 0, i32* %6, align 4
  br label %8

8:                                                ; preds = %18, %0
  %9 = load i32, i32* %6, align 4
  %10 = load i32, i32* %4, align 4
  %11 = sub nsw i32 %10, 1
  %12 = icmp sle i32 %9, %11
  br i1 %12, label %13, label %21

13:                                               ; preds = %8
  %14 = load i32, i32* %6, align 4
  %15 = sext i32 %14 to i64
  %16 = getelementptr inbounds [100 x i32], [100 x i32]* %2, i64 0, i64 %15
  %17 = call i32 (i8*, ...) @__isoc99_scanf(i8* getelementptr inbounds ([3 x i8], [3 x i8]* @.str.1, i64 0, i64 0), i32* %16)
  br label %18

18:                                               ; preds = %13
  %19 = load i32, i32* %6, align 4
  %20 = add nsw i32 %19, 1
  store i32 %20, i32* %6, align 4
  br label %8

21:                                               ; preds = %8
  %22 = getelementptr inbounds [100 x i32], [100 x i32]* %2, i64 0, i64 0
  %23 = getelementptr inbounds [100 x i32], [100 x i32]* %3, i64 0, i64 0
  %24 = load i32, i32* %4, align 4
  %25 = load i32, i32* %5, align 4
  call void @move(i32* %22, i32* %23, i32 %24, i32 %25)
  store i32 0, i32* %6, align 4
  br label %26

26:                                               ; preds = %37, %21
  %27 = load i32, i32* %6, align 4
  %28 = load i32, i32* %4, align 4
  %29 = sub nsw i32 %28, 2
  %30 = icmp sle i32 %27, %29
  br i1 %30, label %31, label %40

31:                                               ; preds = %26
  %32 = load i32, i32* %6, align 4
  %33 = sext i32 %32 to i64
  %34 = getelementptr inbounds [100 x i32], [100 x i32]* %3, i64 0, i64 %33
  %35 = load i32, i32* %34, align 4
  %36 = call i32 (i8*, ...) @printf(i8* getelementptr inbounds ([4 x i8], [4 x i8]* @.str.2, i64 0, i64 0), i32 %35)
  br label %37

37:                                               ; preds = %31
  %38 = load i32, i32* %6, align 4
  %39 = add nsw i32 %38, 1
  store i32 %39, i32* %6, align 4
  br label %26

40:                                               ; preds = %26
  %41 = load i32, i32* %4, align 4
  %42 = sub nsw i32 %41, 1
  %43 = sext i32 %42 to i64
  %44 = getelementptr inbounds [100 x i32], [100 x i32]* %3, i64 0, i64 %43
  %45 = load i32, i32* %44, align 4
  %46 = call i32 (i8*, ...) @printf(i8* getelementptr inbounds ([3 x i8], [3 x i8]* @.str.1, i64 0, i64 0), i32 %45)
  ret i32 0
}

declare dso_local i32 @__isoc99_scanf(i8*, ...) #1

declare dso_local i32 @printf(i8*, ...) #1


!llvm.module.flags = !{!0}
!llvm.ident = !{!1}

!0 = !{i32 1, !"wchar_size", i32 4}
!1 = !{!"clang version 10.0.0-4ubuntu1 "}
